; Function Attrs: mustprogress nounwind uwtable
define hidden void @_ZN10LinearScan23resolve_find_insert_posEP10BlockBeginS1_R12MoveResolver(ptr nocapture noundef nonnull readnone align 8 dereferenceable(256) %0, ptr nocapture noundef readonly %1, ptr nocapture noundef readonly %2, ptr nocapture noundef nonnull writeonly align 8 dereferenceable(380) %3) local_unnamed_addr #0 align 2 {
  %5 = getelementptr inbounds i8, ptr %1, i64 216
  %6 = load ptr, ptr %5, align 8
  %7 = getelementptr inbounds i8, ptr %6, i64 104
  %8 = load ptr, ptr %7, align 8
  %.not.i.i = icmp eq ptr %8, null
  br i1 %.not.i.i, label %_ZNK10BlockBegin13number_of_suxEv.exit.thread, label %_ZNK10BlockBegin13number_of_suxEv.exit

_ZNK10BlockBegin13number_of_suxEv.exit:           ; preds = %4
  %9 = load i32, ptr %8, align 4
  %10 = icmp slt i32 %9, 2
  br i1 %10, label %_ZNK10BlockBegin13number_of_suxEv.exit.thread, label %35

_ZNK10BlockBegin13number_of_suxEv.exit.thread:    ; preds = %4, %_ZNK10BlockBegin13number_of_suxEv.exit
  %11 = getelementptr inbounds i8, ptr %1, i64 304
  %12 = load ptr, ptr %11, align 8
  %13 = getelementptr inbounds i8, ptr %12, i64 8
  %14 = load ptr, ptr %13, align 8
  %15 = load i32, ptr %12, align 8
  %16 = sext i32 %15 to i64
  %17 = getelementptr ptr, ptr %14, i64 %16
  %18 = getelementptr i8, ptr %17, i64 -8
  %19 = load ptr, ptr %18, align 8
  %20 = load ptr, ptr %19, align 8
  %21 = getelementptr inbounds i8, ptr %20, i64 112
  %22 = load ptr, ptr %21, align 8
  %23 = tail call noundef ptr %22(ptr noundef nonnull align 8 dereferenceable(48) %19) #22
  %.not = icmp eq ptr %23, null
  %24 = load ptr, ptr %11, align 8
  %25 = load i32, ptr %12, align 4
  %26 = getelementptr inbounds i8, ptr %3, i64 24
  store ptr %24, ptr %26, align 8
  %27 = getelementptr inbounds i8, ptr %3, i64 32
  store i32 0, ptr %27, align 8
  %28 = getelementptr inbounds i8, ptr %3, i64 56
  store i32 0, ptr %28, align 8
  %29 = getelementptr inbounds i8, ptr %3, i64 8
  store ptr %24, ptr %29, align 8
  %30 = getelementptr inbounds i8, ptr %3, i64 16
  br i1 %.not, label %33, label %31

31:                                               ; preds = %_ZNK10BlockBegin13number_of_suxEv.exit.thread
  %32 = add nsw i32 %25, -2
  store i32 %32, ptr %30, align 8
  br label %43

33:                                               ; preds = %_ZNK10BlockBegin13number_of_suxEv.exit.thread
  %34 = add nsw i32 %25, -1
  store i32 %34, ptr %30, align 8
  br label %43

35:                                               ; preds = %_ZNK10BlockBegin13number_of_suxEv.exit
  %36 = getelementptr inbounds i8, ptr %2, i64 304
  %37 = load ptr, ptr %36, align 8
  %38 = getelementptr inbounds i8, ptr %3, i64 24
  store ptr %37, ptr %38, align 8
  %39 = getelementptr inbounds i8, ptr %3, i64 32
  store i32 0, ptr %39, align 8
  %40 = getelementptr inbounds i8, ptr %3, i64 56
  store i32 0, ptr %40, align 8
  %41 = getelementptr inbounds i8, ptr %3, i64 8
  store ptr %37, ptr %41, align 8
  %42 = getelementptr inbounds i8, ptr %3, i64 16
  store i32 0, ptr %42, align 8
  br label %43

43:                                               ; preds = %31, %33, %35
  ret void
}